; Function Attrs: mustprogress nofree norecurse nosync nounwind willreturn uwtable
define void @_ZNK3gmx16GaussTransform3D9constViewEv(ptr dead_on_unwind noalias writable writeonly sret(%"class.gmx::basic_mdspan.31") align 8 captures(none) initializes((8, 48)) %0, ptr noundef nonnull readonly align 8 captures(none) dereferenceable(8) %1) local_unnamed_addr #16 align 2 {
  %3 = load ptr, ptr %1, align 8, !tbaa !76
  %4 = getelementptr inbounds nuw i8, ptr %3, i64 40
  tail call void @llvm.experimental.noalias.scope.decl(metadata !79)
  %5 = load ptr, ptr %4, align 8, !tbaa !17, !noalias !79
  %6 = getelementptr inbounds nuw i8, ptr %3, i64 72
  %7 = getelementptr inbounds nuw i8, ptr %0, i64 8
  tail call void @llvm.memcpy.p0.p0.i64(ptr noundef nonnull align 8 dereferenceable(32) %7, ptr noundef nonnull align 8 dereferenceable(32) %6, i64 32, i1 false)
  %8 = getelementptr inbounds nuw i8, ptr %0, i64 40
  store ptr %5, ptr %8, align 8, !tbaa !82, !alias.scope !79
  ret void
}